target datalayout = "e-m:e-p270:32:32-p271:32:32-p272:64:64-i64:64-i128:128-f80:128-n8:16:32:64-S128"
target triple = "x86_64-pc-linux-gnu"

%struct._psqlSettings = type { ptr, i32, ptr, i8, ptr, ptr, %struct.printQueryOpt, ptr, ptr, ptr, i8, i8, i32, i32, ptr, ptr, i8, [4 x ptr], i8, i32, ptr, i8, i32, ptr, ptr, i64, i64, i8, ptr, ptr, ptr, i8, i8, i8, i8, i8, i8, i8, i32, i32, i32, i32, i32, i32, i32, i32, ptr, ptr, ptr, i32, i8, i32 }
%struct.printQueryOpt = type { %struct.printTableOpt, ptr, ptr, ptr, i8, ptr, i32 }
%struct.printTableOpt = type { i32, i16, i32, i32, i16, i16, i32, i8, i8, i8, i8, i64, ptr, %struct.separator, %struct.separator, [2 x i8], i8, ptr, i32, i32, i32, i32, i32, i32 }
%struct.separator = type { ptr, i8 }

@pset = external global %struct._psqlSettings, align 8
@.str.94 = private unnamed_addr constant [6 x i8] c"qecho\00", align 1
@.str.95 = private unnamed_addr constant [5 x i8] c"warn\00", align 1
@stdout = external global ptr, align 8
@stderr = external global ptr, align 8
@.str.237 = private unnamed_addr constant [3 x i8] c"-n\00", align 1
@.str.238 = private unnamed_addr constant [2 x i8] c"\0A\00", align 1

; Function Attrs: nounwind uwtable
define internal void @ignore_slash_options(ptr noundef %0) #0 {
  %2 = alloca ptr, align 8
  %3 = alloca ptr, align 8
  store ptr %0, ptr %2, align 8
  call void @llvm.lifetime.start.p0(i64 8, ptr %3) #10
  br label %4

4:                                                ; preds = %8, %1
  %5 = load ptr, ptr %2, align 8
  %6 = call ptr @psql_scan_slash_option(ptr noundef %5, i32 noundef 0, ptr noundef null, i1 noundef zeroext false)
  store ptr %6, ptr %3, align 8
  %7 = icmp ne ptr %6, null
  br i1 %7, label %8, label %10

8:                                                ; preds = %4
  %9 = load ptr, ptr %3, align 8
  call void @free(ptr noundef %9) #10
  br label %4, !llvm.loop !18

10:                                               ; preds = %4
  call void @llvm.lifetime.end.p0(i64 8, ptr %3) #10
  ret void
}

; Function Attrs: nounwind uwtable
define internal i32 @exec_command_echo(ptr noundef %0, i1 noundef zeroext %1, ptr noundef %2) #0 {
  %4 = alloca ptr, align 8
  %5 = alloca i8, align 1
  %6 = alloca ptr, align 8
  %7 = alloca ptr, align 8
  %8 = alloca i8, align 1
  %9 = alloca i8, align 1
  %10 = alloca i8, align 1
  %11 = alloca ptr, align 8
  store ptr %0, ptr %4, align 8
  %12 = zext i1 %1 to i8
  store i8 %12, ptr %5, align 1
  store ptr %2, ptr %6, align 8
  %13 = load i8, ptr %5, align 1, !range !4, !noundef !5
  %14 = trunc i8 %13 to i1
  br i1 %14, label %15, label %69

15:                                               ; preds = %3
  call void @llvm.lifetime.start.p0(i64 8, ptr %7) #10
  call void @llvm.lifetime.start.p0(i64 1, ptr %8) #10
  call void @llvm.lifetime.start.p0(i64 1, ptr %9) #10
  store i8 0, ptr %9, align 1
  call void @llvm.lifetime.start.p0(i64 1, ptr %10) #10
  store i8 1, ptr %10, align 1
  call void @llvm.lifetime.start.p0(i64 8, ptr %11) #10
  %16 = load ptr, ptr %6, align 8
  %17 = call i32 @strcmp(ptr noundef %16, ptr noundef @.str.94) #11
  %18 = icmp eq i32 %17, 0
  br i1 %18, label %19, label %21

19:                                               ; preds = %15
  %20 = load ptr, ptr getelementptr inbounds nuw (%struct._psqlSettings, ptr @pset, i32 0, i32 2), align 8
  store ptr %20, ptr %11, align 8
  br label %30

21:                                               ; preds = %15
  %22 = load ptr, ptr %6, align 8
  %23 = call i32 @strcmp(ptr noundef %22, ptr noundef @.str.95) #11
  %24 = icmp eq i32 %23, 0
  br i1 %24, label %25, label %27

25:                                               ; preds = %21
  %26 = load ptr, ptr @stderr, align 8
  store ptr %26, ptr %11, align 8
  br label %29

27:                                               ; preds = %21
  %28 = load ptr, ptr @stdout, align 8
  store ptr %28, ptr %11, align 8
  br label %29

29:                                               ; preds = %27, %25
  br label %30

30:                                               ; preds = %29, %19
  br label %31

31:                                               ; preds = %60, %30
  %32 = load ptr, ptr %4, align 8
  %33 = call ptr @psql_scan_slash_option(ptr noundef %32, i32 noundef 0, ptr noundef %8, i1 noundef zeroext false)
  store ptr %33, ptr %7, align 8
  %34 = icmp ne ptr %33, null
  br i1 %34, label %35, label %62

35:                                               ; preds = %31
  %36 = load i8, ptr %10, align 1, !range !4, !noundef !5
  %37 = trunc i8 %36 to i1
  br i1 %37, label %38, label %49

38:                                               ; preds = %35
  %39 = load i8, ptr %9, align 1, !range !4, !noundef !5
  %40 = trunc i8 %39 to i1
  br i1 %40, label %49, label %41

41:                                               ; preds = %38
  %42 = load i8, ptr %8, align 1
  %43 = icmp ne i8 %42, 0
  br i1 %43, label %49, label %44

44:                                               ; preds = %41
  %45 = load ptr, ptr %7, align 8
  %46 = call i32 @strcmp(ptr noundef %45, ptr noundef @.str.237) #11
  %47 = icmp eq i32 %46, 0
  br i1 %47, label %48, label %49

48:                                               ; preds = %44
  store i8 1, ptr %9, align 1
  br label %60

49:                                               ; preds = %44, %41, %38, %35
  %50 = load i8, ptr %10, align 1, !range !4, !noundef !5
  %51 = trunc i8 %50 to i1
  br i1 %51, label %52, label %53

52:                                               ; preds = %49
  store i8 0, ptr %10, align 1
  br label %56

53:                                               ; preds = %49
  %54 = load ptr, ptr %11, align 8
  %55 = call i32 @fputc(i32 noundef 32, ptr noundef %54)
  br label %56

56:                                               ; preds = %53, %52
  %57 = load ptr, ptr %7, align 8
  %58 = load ptr, ptr %11, align 8
  %59 = call i32 @fputs(ptr noundef %57, ptr noundef %58)
  br label %60

60:                                               ; preds = %56, %48
  %61 = load ptr, ptr %7, align 8
  call void @free(ptr noundef %61) #10
  br label %31, !llvm.loop !14

62:                                               ; preds = %31
  %63 = load i8, ptr %9, align 1, !range !4, !noundef !5
  %64 = trunc i8 %63 to i1
  br i1 %64, label %68, label %65

65:                                               ; preds = %62
  %66 = load ptr, ptr %11, align 8
  %67 = call i32 @fputs(ptr noundef @.str.238, ptr noundef %66)
  br label %68

68:                                               ; preds = %65, %62
  call void @llvm.lifetime.end.p0(i64 8, ptr %11) #10
  call void @llvm.lifetime.end.p0(i64 1, ptr %10) #10
  call void @llvm.lifetime.end.p0(i64 1, ptr %9) #10
  call void @llvm.lifetime.end.p0(i64 1, ptr %8) #10
  call void @llvm.lifetime.end.p0(i64 8, ptr %7) #10
  br label %71

69:                                               ; preds = %3
  %70 = load ptr, ptr %4, align 8
  call void @ignore_slash_options(ptr noundef %70)
  br label %71

71:                                               ; preds = %69, %68
  ret i32 2
}