; Function Attrs: nounwind uwtable
define internal fastcc void @exec_command_echo(ptr noundef %0, i1 noundef zeroext %1, ptr noundef readonly captures(none) %2) unnamed_addr #0 {
  %4 = alloca i8, align 1
  br i1 %1, label %5, label %30

5:                                                ; preds = %3
  call void @llvm.lifetime.start.p0(i64 1, ptr nonnull %4) #16
  %6 = tail call i32 @strcmp(ptr noundef nonnull dereferenceable(1) %2, ptr noundef nonnull dereferenceable(6) @.str.94) #17
  %7 = icmp eq i32 %6, 0
  br i1 %7, label %11, label %8

8:                                                ; preds = %5
  %9 = tail call i32 @strcmp(ptr noundef nonnull dereferenceable(1) %2, ptr noundef nonnull dereferenceable(5) @.str.95) #17
  %10 = icmp eq i32 %9, 0
  %stderr.stdout = select i1 %10, ptr @stderr, ptr @stdout
  br label %11

11:                                               ; preds = %8, %5
  %.0.in = phi ptr [ getelementptr inbounds nuw (i8, ptr @pset, i64 16), %5 ], [ %stderr.stdout, %8 ]
  %.0 = load ptr, ptr %.0.in, align 8
  %12 = call ptr @psql_scan_slash_option(ptr noundef %0, i32 noundef 0, ptr noundef nonnull %4, i1 noundef zeroext false) #16
  %.not19 = icmp eq ptr %12, null
  br i1 %.not19, label %._crit_edge.thread, label %.lr.ph

.lr.ph:                                           ; preds = %11, %26
  %13 = phi ptr [ %27, %26 ], [ %12, %11 ]
  %.01521 = phi i1 [ %.1, %26 ], [ true, %11 ]
  %.01620 = phi i8 [ %.117, %26 ], [ 0, %11 ]
  br i1 %.01521, label %14, label %.critedge

14:                                               ; preds = %.lr.ph
  %15 = trunc nuw i8 %.01620 to i1
  %16 = load i8, ptr %4, align 1
  %17 = icmp ne i8 %16, 0
  %or.cond = select i1 %15, i1 true, i1 %17
  br i1 %or.cond, label %.tail.thread, label %sub_0

sub_0:                                            ; preds = %14
  %18 = load i8, ptr %13, align 1
  %.not22 = icmp eq i8 %18, 45
  br i1 %.not22, label %sub_1, label %.tail.thread

sub_1:                                            ; preds = %sub_0
  %19 = getelementptr inbounds nuw i8, ptr %13, i64 1
  %20 = load i8, ptr %19, align 1
  %.not23 = icmp eq i8 %20, 110
  br i1 %.not23, label %.tail, label %.tail.thread

.tail:                                            ; preds = %sub_1
  %21 = getelementptr inbounds nuw i8, ptr %13, i64 2
  %22 = load i8, ptr %21, align 1
  %23 = icmp eq i8 %22, 0
  br i1 %23, label %26, label %.tail.thread

.critedge:                                        ; preds = %.lr.ph
  %24 = call i32 @fputc(i32 noundef 32, ptr noundef %.0)
  br label %.tail.thread

.tail.thread:                                     ; preds = %sub_1, %sub_0, %14, %.tail, %.critedge
  %25 = call i32 @fputs(ptr noundef nonnull %13, ptr noundef %.0)
  br label %26

26:                                               ; preds = %.tail, %.tail.thread
  %.117 = phi i8 [ %.01620, %.tail.thread ], [ 1, %.tail ]
  %.1 = phi i1 [ false, %.tail.thread ], [ true, %.tail ]
  call void @free(ptr noundef nonnull %13) #16
  %27 = call ptr @psql_scan_slash_option(ptr noundef %0, i32 noundef 0, ptr noundef nonnull %4, i1 noundef zeroext false) #16
  %.not = icmp eq ptr %27, null
  br i1 %.not, label %._crit_edge, label %.lr.ph, !llvm.loop !20

._crit_edge:                                      ; preds = %26
  %28 = trunc nuw i8 %.117 to i1
  br i1 %28, label %29, label %._crit_edge.thread

._crit_edge.thread:                               ; preds = %11, %._crit_edge
  %fputc = call i32 @fputc(i32 10, ptr %.0)
  br label %29

29:                                               ; preds = %._crit_edge.thread, %._crit_edge
  call void @llvm.lifetime.end.p0(i64 1, ptr nonnull %4) #16
  br label %ignore_slash_options.exit

30:                                               ; preds = %3
  %31 = tail call ptr @psql_scan_slash_option(ptr noundef %0, i32 noundef 0, ptr noundef null, i1 noundef zeroext false) #16
  %.not2.i = icmp eq ptr %31, null
  br i1 %.not2.i, label %ignore_slash_options.exit, label %.lr.ph.i

.lr.ph.i:                                         ; preds = %30, %.lr.ph.i
  %32 = phi ptr [ %33, %.lr.ph.i ], [ %31, %30 ]
  tail call void @free(ptr noundef nonnull %32) #16
  %33 = tail call ptr @psql_scan_slash_option(ptr noundef %0, i32 noundef 0, ptr noundef null, i1 noundef zeroext false) #16
  %.not.i = icmp eq ptr %33, null
  br i1 %.not.i, label %ignore_slash_options.exit, label %.lr.ph.i, !llvm.loop !10

ignore_slash_options.exit:                        ; preds = %.lr.ph.i, %30, %29
  ret void
}